target datalayout = "e-m:e-p270:32:32-p271:32:32-p272:64:64-i64:64-i128:128-f80:128-n8:16:32:64-S128"
target triple = "x86_64-pc-linux-gnu"

%struct.PBE2PARAM_st = type { ptr, ptr }
%struct.X509_algor_st = type { ptr, ptr }
%struct.asn1_type_st = type { i32, %union.anon }
%union.anon = type { ptr }
%struct.asn1_string_st = type { i32, i32, ptr, i64 }

@PBE2PARAM_it = hidden constant { i8, [7 x i8], i64, ptr, i64, ptr, i64, ptr } { i8 1, [7 x i8] zeroinitializer, i64 16, ptr @PBE2PARAM_seq_tt, i64 2, ptr null, i64 16, ptr @.str }, align 8
@.str.2 = private unnamed_addr constant [127 x i8] c"generated/home/dtcxzyw/WorkSpace/Projects/compilers/llvm-opt-benchmark/bench/libquic/libquic/boringssl/crypto/pkcs8/p5_pbev2.c\00", align 1

; Function Attrs: nounwind uwtable
define hidden void @PBE2PARAM_free(ptr noundef %0) #0 {
  %2 = alloca ptr, align 8
  store ptr %0, ptr %2, align 8, !tbaa !15
  %3 = load ptr, ptr %2, align 8, !tbaa !15
  call void @ASN1_item_free(ptr noundef %3, ptr noundef @PBE2PARAM_it)
  ret void
}

; Function Attrs: nounwind uwtable
define hidden ptr @d2i_PBE2PARAM(ptr noundef %0, ptr noundef %1, i64 noundef %2) #0 {
  %4 = alloca ptr, align 8
  %5 = alloca ptr, align 8
  %6 = alloca i64, align 8
  store ptr %0, ptr %4, align 8, !tbaa !6
  store ptr %1, ptr %5, align 8, !tbaa !11
  store i64 %2, ptr %6, align 8, !tbaa !13
  %7 = load ptr, ptr %4, align 8, !tbaa !6
  %8 = load ptr, ptr %5, align 8, !tbaa !11
  %9 = load i64, ptr %6, align 8, !tbaa !13
  %10 = call ptr @ASN1_item_d2i(ptr noundef %7, ptr noundef %8, i64 noundef %9, ptr noundef @PBE2PARAM_it)
  ret ptr %10
}

; Function Attrs: nounwind uwtable
define hidden i32 @PKCS5_v2_PBE_keyivgen(ptr noundef %0, ptr noundef %1, i64 noundef %2, ptr noundef %3, ptr noundef %4, ptr noundef %5, i32 noundef %6) #0 {
  %8 = alloca ptr, align 8
  %9 = alloca ptr, align 8
  %10 = alloca i64, align 8
  %11 = alloca ptr, align 8
  %12 = alloca ptr, align 8
  %13 = alloca ptr, align 8
  %14 = alloca i32, align 4
  %15 = alloca ptr, align 8
  %16 = alloca i32, align 4
  %17 = alloca ptr, align 8
  %18 = alloca i32, align 4
  %19 = alloca ptr, align 8
  store ptr %0, ptr %8, align 8, !tbaa !40
  store ptr %1, ptr %9, align 8, !tbaa !25
  store i64 %2, ptr %10, align 8, !tbaa !13
  store ptr %3, ptr %11, align 8, !tbaa !42
  store ptr %4, ptr %12, align 8, !tbaa !21
  store ptr %5, ptr %13, align 8, !tbaa !54
  store i32 %6, ptr %14, align 4, !tbaa !23
  call void @llvm.lifetime.start.p0(i64 8, ptr %15) #5
  store ptr null, ptr %15, align 8, !tbaa !15
  call void @llvm.lifetime.start.p0(i64 4, ptr %16) #5
  store i32 0, ptr %16, align 4, !tbaa !23
  %20 = load ptr, ptr %11, align 8, !tbaa !42
  %21 = icmp eq ptr %20, null
  br i1 %21, label %32, label %22

22:                                               ; preds = %7
  %23 = load ptr, ptr %11, align 8, !tbaa !42
  %24 = getelementptr inbounds nuw %struct.asn1_type_st, ptr %23, i32 0, i32 0
  %25 = load i32, ptr %24, align 8, !tbaa !38
  %26 = icmp ne i32 %25, 16
  br i1 %26, label %32, label %27

27:                                               ; preds = %22
  %28 = load ptr, ptr %11, align 8, !tbaa !42
  %29 = getelementptr inbounds nuw %struct.asn1_type_st, ptr %28, i32 0, i32 1
  %30 = load ptr, ptr %29, align 8, !tbaa !47
  %31 = icmp eq ptr %30, null
  br i1 %31, label %32, label %33

32:                                               ; preds = %27, %22, %7
  call void @ERR_put_error(i32 noundef 19, i32 noundef 0, i32 noundef 104, ptr noundef @.str.2, i32 noundef 402)
  br label %104

33:                                               ; preds = %27
  %34 = load ptr, ptr %11, align 8, !tbaa !42
  %35 = getelementptr inbounds nuw %struct.asn1_type_st, ptr %34, i32 0, i32 1
  %36 = load ptr, ptr %35, align 8, !tbaa !47
  %37 = getelementptr inbounds nuw %struct.asn1_string_st, ptr %36, i32 0, i32 2
  %38 = load ptr, ptr %37, align 8, !tbaa !48
  store ptr %38, ptr %17, align 8, !tbaa !25
  %39 = load ptr, ptr %11, align 8, !tbaa !42
  %40 = getelementptr inbounds nuw %struct.asn1_type_st, ptr %39, i32 0, i32 1
  %41 = load ptr, ptr %40, align 8, !tbaa !47
  %42 = getelementptr inbounds nuw %struct.asn1_string_st, ptr %41, i32 0, i32 0
  %43 = load i32, ptr %42, align 8, !tbaa !50
  store i32 %43, ptr %18, align 4, !tbaa !23
  %44 = load i32, ptr %18, align 4, !tbaa !23
  %45 = sext i32 %44 to i64
  %46 = call ptr @d2i_PBE2PARAM(ptr noundef null, ptr noundef %17, i64 noundef %45)
  store ptr %46, ptr %15, align 8, !tbaa !15
  %47 = load ptr, ptr %15, align 8, !tbaa !15
  %48 = icmp eq ptr %47, null
  br i1 %48, label %60, label %49

49:                                               ; preds = %33
  %50 = load ptr, ptr %17, align 8, !tbaa !25
  %51 = load ptr, ptr %11, align 8, !tbaa !42
  %52 = getelementptr inbounds nuw %struct.asn1_type_st, ptr %51, i32 0, i32 1
  %53 = load ptr, ptr %52, align 8, !tbaa !47
  %54 = getelementptr inbounds nuw %struct.asn1_string_st, ptr %53, i32 0, i32 2
  %55 = load ptr, ptr %54, align 8, !tbaa !48
  %56 = load i32, ptr %18, align 4, !tbaa !23
  %57 = sext i32 %56 to i64
  %58 = getelementptr inbounds i8, ptr %55, i64 %57
  %59 = icmp ne ptr %50, %58
  br i1 %59, label %60, label %61

60:                                               ; preds = %49, %33
  call void @ERR_put_error(i32 noundef 19, i32 noundef 0, i32 noundef 104, ptr noundef @.str.2, i32 noundef 410)
  br label %104

61:                                               ; preds = %49
  %62 = load ptr, ptr %15, align 8, !tbaa !15
  %63 = getelementptr inbounds nuw %struct.PBE2PARAM_st, ptr %62, i32 0, i32 0
  %64 = load ptr, ptr %63, align 8, !tbaa !37
  %65 = getelementptr inbounds nuw %struct.X509_algor_st, ptr %64, i32 0, i32 0
  %66 = load ptr, ptr %65, align 8, !tbaa !33
  %67 = call i32 @OBJ_obj2nid(ptr noundef %66)
  %68 = icmp ne i32 %67, 69
  br i1 %68, label %69, label %70

69:                                               ; preds = %61
  call void @ERR_put_error(i32 noundef 19, i32 noundef 0, i32 noundef 128, ptr noundef @.str.2, i32 noundef 416)
  br label %104

70:                                               ; preds = %61
  %71 = load ptr, ptr %15, align 8, !tbaa !15
  %72 = getelementptr inbounds nuw %struct.PBE2PARAM_st, ptr %71, i32 0, i32 1
  %73 = load ptr, ptr %72, align 8, !tbaa !31
  %74 = getelementptr inbounds nuw %struct.X509_algor_st, ptr %73, i32 0, i32 0
  %75 = load ptr, ptr %74, align 8, !tbaa !33
  %76 = call i32 @OBJ_obj2nid(ptr noundef %75)
  %77 = call ptr @EVP_get_cipherbynid(i32 noundef %76)
  store ptr %77, ptr %19, align 8, !tbaa !21
  %78 = load ptr, ptr %19, align 8, !tbaa !21
  %79 = icmp eq ptr %78, null
  br i1 %79, label %80, label %81

80:                                               ; preds = %70
  call void @ERR_put_error(i32 noundef 19, i32 noundef 0, i32 noundef 127, ptr noundef @.str.2, i32 noundef 424)
  br label %104

81:                                               ; preds = %70
  %82 = load ptr, ptr %8, align 8, !tbaa !40
  %83 = load ptr, ptr %19, align 8, !tbaa !21
  %84 = load i32, ptr %14, align 4, !tbaa !23
  %85 = call i32 @EVP_CipherInit_ex(ptr noundef %82, ptr noundef %83, ptr noundef null, ptr noundef null, ptr noundef null, i32 noundef %84)
  %86 = icmp ne i32 %85, 0
  br i1 %86, label %88, label %87

87:                                               ; preds = %81
  br label %104

88:                                               ; preds = %81
  %89 = load ptr, ptr %8, align 8, !tbaa !40
  %90 = load ptr, ptr %9, align 8, !tbaa !25
  %91 = load i64, ptr %10, align 8, !tbaa !13
  %92 = load ptr, ptr %15, align 8, !tbaa !15
  %93 = getelementptr inbounds nuw %struct.PBE2PARAM_st, ptr %92, i32 0, i32 0
  %94 = load ptr, ptr %93, align 8, !tbaa !37
  %95 = getelementptr inbounds nuw %struct.X509_algor_st, ptr %94, i32 0, i32 1
  %96 = load ptr, ptr %95, align 8, !tbaa !36
  %97 = load ptr, ptr %15, align 8, !tbaa !15
  %98 = getelementptr inbounds nuw %struct.PBE2PARAM_st, ptr %97, i32 0, i32 1
  %99 = load ptr, ptr %98, align 8, !tbaa !31
  %100 = getelementptr inbounds nuw %struct.X509_algor_st, ptr %99, i32 0, i32 1
  %101 = load ptr, ptr %100, align 8, !tbaa !36
  %102 = load i32, ptr %14, align 4, !tbaa !23
  %103 = call i32 @PKCS5_v2_PBKDF2_keyivgen(ptr noundef %89, ptr noundef %90, i64 noundef %91, ptr noundef %96, ptr noundef %101, i32 noundef %102)
  store i32 %103, ptr %16, align 4, !tbaa !23
  br label %104

104:                                              ; preds = %88, %87, %80, %69, %60, %32
  %105 = load ptr, ptr %15, align 8, !tbaa !15
  call void @PBE2PARAM_free(ptr noundef %105)
  %106 = load i32, ptr %16, align 4, !tbaa !23
  call void @llvm.lifetime.end.p0(i64 4, ptr %16) #5
  call void @llvm.lifetime.end.p0(i64 8, ptr %15) #5
  ret i32 %106
}