; Function Attrs: nounwind uwtable
define hidden i32 @PKCS5_v2_PBE_keyivgen(ptr noundef %0, ptr noundef %1, i64 noundef %2, ptr noundef readonly captures(address_is_null) %3, ptr noundef readnone captures(none) %4, ptr noundef readnone captures(none) %5, i32 noundef %6) local_unnamed_addr #0 {
  %8 = alloca ptr, align 8
  %9 = icmp eq ptr %3, null
  br i1 %9, label %16, label %10

10:                                               ; preds = %7
  %11 = load i32, ptr %3, align 8, !tbaa !20
  %.not = icmp eq i32 %11, 16
  br i1 %.not, label %12, label %16

12:                                               ; preds = %10
  %13 = getelementptr inbounds nuw i8, ptr %3, i64 8
  %14 = load ptr, ptr %13, align 8, !tbaa !25
  %15 = icmp eq ptr %14, null
  br i1 %15, label %16, label %17

16:                                               ; preds = %12, %10, %7
  tail call void @ERR_put_error(i32 noundef 19, i32 noundef 0, i32 noundef 104, ptr noundef nonnull @.str.2, i32 noundef 402) #5
  br label %54

17:                                               ; preds = %12
  %18 = getelementptr inbounds nuw i8, ptr %14, i64 8
  %19 = load ptr, ptr %18, align 8, !tbaa !26
  store ptr %19, ptr %8, align 8, !tbaa !34
  %20 = load i32, ptr %14, align 8, !tbaa !30
  %21 = sext i32 %20 to i64
  %22 = call ptr @ASN1_item_d2i(ptr noundef null, ptr noundef nonnull %8, i64 noundef %21, ptr noundef nonnull @PBE2PARAM_it) #5
  %23 = icmp eq ptr %22, null
  br i1 %23, label %30, label %24

24:                                               ; preds = %17
  %25 = load ptr, ptr %8, align 8, !tbaa !34
  %26 = load ptr, ptr %13, align 8, !tbaa !25
  %27 = getelementptr inbounds nuw i8, ptr %26, i64 8
  %28 = load ptr, ptr %27, align 8, !tbaa !26
  %29 = getelementptr inbounds i8, ptr %28, i64 %21
  %.not27 = icmp eq ptr %25, %29
  br i1 %.not27, label %31, label %30

30:                                               ; preds = %24, %17
  call void @ERR_put_error(i32 noundef 19, i32 noundef 0, i32 noundef 104, ptr noundef nonnull @.str.2, i32 noundef 410) #5
  br label %54

31:                                               ; preds = %24
  %32 = load ptr, ptr %22, align 8, !tbaa !19
  %33 = load ptr, ptr %32, align 8, !tbaa !14
  %34 = call i32 @OBJ_obj2nid(ptr noundef %33) #5
  %.not28 = icmp eq i32 %34, 69
  br i1 %.not28, label %36, label %35

35:                                               ; preds = %31
  call void @ERR_put_error(i32 noundef 19, i32 noundef 0, i32 noundef 128, ptr noundef nonnull @.str.2, i32 noundef 416) #5
  br label %54

36:                                               ; preds = %31
  %37 = getelementptr inbounds nuw i8, ptr %22, i64 8
  %38 = load ptr, ptr %37, align 8, !tbaa !10
  %39 = load ptr, ptr %38, align 8, !tbaa !14
  %40 = call i32 @OBJ_obj2nid(ptr noundef %39) #5
  %41 = call ptr @EVP_get_cipherbynid(i32 noundef %40) #5
  %42 = icmp eq ptr %41, null
  br i1 %42, label %43, label %44

43:                                               ; preds = %36
  call void @ERR_put_error(i32 noundef 19, i32 noundef 0, i32 noundef 127, ptr noundef nonnull @.str.2, i32 noundef 424) #5
  br label %54

44:                                               ; preds = %36
  %45 = call i32 @EVP_CipherInit_ex(ptr noundef %0, ptr noundef nonnull %41, ptr noundef null, ptr noundef null, ptr noundef null, i32 noundef %6) #5
  %.not29 = icmp eq i32 %45, 0
  br i1 %.not29, label %54, label %46

46:                                               ; preds = %44
  %47 = load ptr, ptr %22, align 8, !tbaa !19
  %48 = getelementptr inbounds nuw i8, ptr %47, i64 8
  %49 = load ptr, ptr %48, align 8, !tbaa !18
  %50 = load ptr, ptr %37, align 8, !tbaa !10
  %51 = getelementptr inbounds nuw i8, ptr %50, i64 8
  %52 = load ptr, ptr %51, align 8, !tbaa !18
  %53 = call fastcc i32 @PKCS5_v2_PBKDF2_keyivgen(ptr noundef %0, ptr noundef %1, i64 noundef %2, ptr noundef %49, ptr noundef %52, i32 noundef %6)
  br label %54

54:                                               ; preds = %44, %46, %43, %35, %30, %16
  %.022 = phi i32 [ 0, %16 ], [ 0, %30 ], [ 0, %35 ], [ 0, %43 ], [ %53, %46 ], [ 0, %44 ]
  %.0 = phi ptr [ null, %16 ], [ %22, %30 ], [ %22, %35 ], [ %22, %43 ], [ %22, %46 ], [ %22, %44 ]
  call void @ASN1_item_free(ptr noundef %.0, ptr noundef nonnull @PBE2PARAM_it) #5
  ret i32 %.022
}